target datalayout = "e-m:e-p270:32:32-p271:32:32-p272:64:64-i64:64-i128:128-f80:128-n8:16:32:64-S128"
target triple = "x86_64-pc-linux-gnu"

%struct.ossl_param_st = type { ptr, i32, ptr, i64, i64 }
%struct.decoder_pkey_data_st = type { ptr, ptr, i32, ptr, ptr, ptr, ptr }
%struct.ossl_decoder_st = type { %struct.ossl_endecode_base_st, ptr, ptr, ptr, ptr, ptr, ptr, ptr, ptr, ptr }
%struct.ossl_endecode_base_st = type { ptr, i32, ptr, ptr, ptr, %struct.CRYPTO_REF_COUNT }
%struct.CRYPTO_REF_COUNT = type { i32 }
%struct.evp_keymgmt_util_try_import_data_st = type { ptr, ptr, i32 }

@.str = private unnamed_addr constant [47 x i8] c"../openssl/crypto/encode_decode/decoder_pkey.c\00", align 1
@.str.5 = private unnamed_addr constant [10 x i8] c"data-type\00", align 1
@.str.6 = private unnamed_addr constant [10 x i8] c"reference\00", align 1

; Function Attrs: inlinehint nounwind uwtable
define internal ptr @sk_EVP_KEYMGMT_value(ptr noundef %0, i32 noundef %1) #3 {
  %3 = alloca ptr, align 8
  %4 = alloca i32, align 4
  store ptr %0, ptr %3, align 8, !tbaa !38
  store i32 %1, ptr %4, align 4, !tbaa !28
  %5 = load ptr, ptr %3, align 8, !tbaa !38
  %6 = load i32, ptr %4, align 4, !tbaa !28
  %7 = call ptr @OPENSSL_sk_value(ptr noundef %5, i32 noundef %6)
  ret ptr %7
}

; Function Attrs: inlinehint nounwind uwtable
define internal i32 @sk_EVP_KEYMGMT_num(ptr noundef %0) #3 {
  %2 = alloca ptr, align 8
  store ptr %0, ptr %2, align 8, !tbaa !38
  %3 = load ptr, ptr %2, align 8, !tbaa !38
  %4 = call i32 @OPENSSL_sk_num(ptr noundef %3)
  ret i32 %4
}

; Function Attrs: nounwind uwtable
define internal i32 @decoder_construct_pkey(ptr noundef %0, ptr noundef %1, ptr noundef %2) #0 {
  %4 = alloca i32, align 4
  %5 = alloca ptr, align 8
  %6 = alloca ptr, align 8
  %7 = alloca ptr, align 8
  %8 = alloca ptr, align 8
  %9 = alloca ptr, align 8
  %10 = alloca ptr, align 8
  %11 = alloca ptr, align 8
  %12 = alloca ptr, align 8
  %13 = alloca ptr, align 8
  %14 = alloca i32, align 4
  %15 = alloca i32, align 4
  %16 = alloca ptr, align 8
  %17 = alloca i64, align 8
  %18 = alloca ptr, align 8
  %19 = alloca ptr, align 8
  %20 = alloca i32, align 4
  %21 = alloca ptr, align 8
  %22 = alloca ptr, align 8
  %23 = alloca %struct.evp_keymgmt_util_try_import_data_st, align 8
  store ptr %0, ptr %5, align 8, !tbaa !74
  store ptr %1, ptr %6, align 8, !tbaa !76
  store ptr %2, ptr %7, align 8, !tbaa !14
  call void @llvm.lifetime.start.p0(i64 8, ptr %8) #7
  %24 = load ptr, ptr %7, align 8, !tbaa !14
  store ptr %24, ptr %8, align 8, !tbaa !36
  call void @llvm.lifetime.start.p0(i64 8, ptr %9) #7
  %25 = load ptr, ptr %5, align 8, !tbaa !74
  %26 = call ptr @OSSL_DECODER_INSTANCE_get_decoder(ptr noundef %25)
  store ptr %26, ptr %9, align 8, !tbaa !62
  call void @llvm.lifetime.start.p0(i64 8, ptr %10) #7
  %27 = load ptr, ptr %5, align 8, !tbaa !74
  %28 = call ptr @OSSL_DECODER_INSTANCE_get_decoder_ctx(ptr noundef %27)
  store ptr %28, ptr %10, align 8, !tbaa !14
  call void @llvm.lifetime.start.p0(i64 8, ptr %11) #7
  %29 = load ptr, ptr %9, align 8, !tbaa !62
  %30 = call ptr @OSSL_DECODER_get0_provider(ptr noundef %29)
  store ptr %30, ptr %11, align 8, !tbaa !64
  call void @llvm.lifetime.start.p0(i64 8, ptr %12) #7
  store ptr null, ptr %12, align 8, !tbaa !58
  call void @llvm.lifetime.start.p0(i64 8, ptr %13) #7
  store ptr null, ptr %13, align 8, !tbaa !64
  call void @llvm.lifetime.start.p0(i64 4, ptr %14) #7
  call void @llvm.lifetime.start.p0(i64 4, ptr %15) #7
  call void @llvm.lifetime.start.p0(i64 8, ptr %16) #7
  store ptr null, ptr %16, align 8, !tbaa !14
  call void @llvm.lifetime.start.p0(i64 8, ptr %17) #7
  store i64 0, ptr %17, align 8, !tbaa !10
  call void @llvm.lifetime.start.p0(i64 8, ptr %18) #7
  %31 = load ptr, ptr %6, align 8, !tbaa !76
  %32 = call ptr @OSSL_PARAM_locate_const(ptr noundef %31, ptr noundef @.str.5)
  store ptr %32, ptr %18, align 8, !tbaa !76
  %33 = load ptr, ptr %18, align 8, !tbaa !76
  %34 = icmp ne ptr %33, null
  br i1 %34, label %35, label %50

35:                                               ; preds = %3
  call void @llvm.lifetime.start.p0(i64 8, ptr %19) #7
  store ptr null, ptr %19, align 8, !tbaa !8
  %36 = load ptr, ptr %18, align 8, !tbaa !76
  %37 = call i32 @OSSL_PARAM_get_utf8_string(ptr noundef %36, ptr noundef %19, i64 noundef 0)
  %38 = icmp ne i32 %37, 0
  br i1 %38, label %40, label %39

39:                                               ; preds = %35
  store i32 0, ptr %4, align 4
  store i32 1, ptr %20, align 4
  br label %47

40:                                               ; preds = %35
  %41 = load ptr, ptr %8, align 8, !tbaa !36
  %42 = getelementptr inbounds nuw %struct.decoder_pkey_data_st, ptr %41, i32 0, i32 4
  %43 = load ptr, ptr %42, align 8, !tbaa !78
  call void @CRYPTO_free(ptr noundef %43, ptr noundef @.str, i32 noundef 100)
  %44 = load ptr, ptr %19, align 8, !tbaa !8
  %45 = load ptr, ptr %8, align 8, !tbaa !36
  %46 = getelementptr inbounds nuw %struct.decoder_pkey_data_st, ptr %45, i32 0, i32 4
  store ptr %44, ptr %46, align 8, !tbaa !78
  store i32 0, ptr %20, align 4
  br label %47

47:                                               ; preds = %40, %39
  call void @llvm.lifetime.end.p0(i64 8, ptr %19) #7
  %48 = load i32, ptr %20, align 4
  switch i32 %48, label %198 [
    i32 0, label %49
  ]

49:                                               ; preds = %47
  br label %50

50:                                               ; preds = %49, %3
  %51 = load ptr, ptr %6, align 8, !tbaa !76
  %52 = call ptr @OSSL_PARAM_locate_const(ptr noundef %51, ptr noundef @.str.6)
  store ptr %52, ptr %18, align 8, !tbaa !76
  %53 = load ptr, ptr %18, align 8, !tbaa !76
  %54 = icmp eq ptr %53, null
  br i1 %54, label %60, label %55

55:                                               ; preds = %50
  %56 = load ptr, ptr %18, align 8, !tbaa !76
  %57 = getelementptr inbounds nuw %struct.ossl_param_st, ptr %56, i32 0, i32 1
  %58 = load i32, ptr %57, align 8, !tbaa !79
  %59 = icmp ne i32 %58, 5
  br i1 %59, label %60, label %61

60:                                               ; preds = %55, %50
  store i32 0, ptr %4, align 4
  store i32 1, ptr %20, align 4
  br label %198

61:                                               ; preds = %55
  %62 = load ptr, ptr %18, align 8, !tbaa !76
  %63 = getelementptr inbounds nuw %struct.ossl_param_st, ptr %62, i32 0, i32 2
  %64 = load ptr, ptr %63, align 8, !tbaa !81
  store ptr %64, ptr %16, align 8, !tbaa !14
  %65 = load ptr, ptr %18, align 8, !tbaa !76
  %66 = getelementptr inbounds nuw %struct.ossl_param_st, ptr %65, i32 0, i32 3
  %67 = load i64, ptr %66, align 8, !tbaa !82
  store i64 %67, ptr %17, align 8, !tbaa !10
  %68 = load ptr, ptr %8, align 8, !tbaa !36
  %69 = getelementptr inbounds nuw %struct.decoder_pkey_data_st, ptr %68, i32 0, i32 3
  %70 = load ptr, ptr %69, align 8, !tbaa !49
  %71 = call i32 @sk_EVP_KEYMGMT_num(ptr noundef %70)
  store i32 %71, ptr %15, align 4, !tbaa !28
  store i32 0, ptr %14, align 4, !tbaa !28
  br label %72

72:                                               ; preds = %100, %61
  %73 = load i32, ptr %14, align 4, !tbaa !28
  %74 = load i32, ptr %15, align 4, !tbaa !28
  %75 = icmp slt i32 %73, %74
  br i1 %75, label %76, label %103

76:                                               ; preds = %72
  %77 = load ptr, ptr %8, align 8, !tbaa !36
  %78 = getelementptr inbounds nuw %struct.decoder_pkey_data_st, ptr %77, i32 0, i32 3
  %79 = load ptr, ptr %78, align 8, !tbaa !49
  %80 = load i32, ptr %14, align 4, !tbaa !28
  %81 = call ptr @sk_EVP_KEYMGMT_value(ptr noundef %79, i32 noundef %80)
  store ptr %81, ptr %12, align 8, !tbaa !58
  %82 = load ptr, ptr %12, align 8, !tbaa !58
  %83 = call ptr @EVP_KEYMGMT_get0_provider(ptr noundef %82)
  store ptr %83, ptr %13, align 8, !tbaa !64
  %84 = load ptr, ptr %13, align 8, !tbaa !64
  %85 = load ptr, ptr %11, align 8, !tbaa !64
  %86 = icmp eq ptr %84, %85
  br i1 %86, label %87, label %99

87:                                               ; preds = %76
  %88 = load ptr, ptr %12, align 8, !tbaa !58
  %89 = call i32 @evp_keymgmt_has_load(ptr noundef %88)
  %90 = icmp ne i32 %89, 0
  br i1 %90, label %91, label %99

91:                                               ; preds = %87
  %92 = load ptr, ptr %12, align 8, !tbaa !58
  %93 = load ptr, ptr %8, align 8, !tbaa !36
  %94 = getelementptr inbounds nuw %struct.decoder_pkey_data_st, ptr %93, i32 0, i32 4
  %95 = load ptr, ptr %94, align 8, !tbaa !78
  %96 = call i32 @EVP_KEYMGMT_is_a(ptr noundef %92, ptr noundef %95)
  %97 = icmp ne i32 %96, 0
  br i1 %97, label %98, label %99

98:                                               ; preds = %91
  br label %103

99:                                               ; preds = %91, %87, %76
  br label %100

100:                                              ; preds = %99
  %101 = load i32, ptr %14, align 4, !tbaa !28
  %102 = add nsw i32 %101, 1
  store i32 %102, ptr %14, align 4, !tbaa !28
  br label %72, !llvm.loop !83

103:                                              ; preds = %98, %72
  %104 = load i32, ptr %14, align 4, !tbaa !28
  %105 = load i32, ptr %15, align 4, !tbaa !28
  %106 = icmp slt i32 %104, %105
  br i1 %106, label %107, label %113

107:                                              ; preds = %103
  %108 = load ptr, ptr %12, align 8, !tbaa !58
  %109 = call i32 @EVP_KEYMGMT_up_ref(ptr noundef %108)
  %110 = icmp ne i32 %109, 0
  br i1 %110, label %112, label %111

111:                                              ; preds = %107
  store i32 0, ptr %4, align 4
  store i32 1, ptr %20, align 4
  br label %198

112:                                              ; preds = %107
  br label %129

113:                                              ; preds = %103
  %114 = load ptr, ptr %8, align 8, !tbaa !36
  %115 = getelementptr inbounds nuw %struct.decoder_pkey_data_st, ptr %114, i32 0, i32 0
  %116 = load ptr, ptr %115, align 8, !tbaa !43
  %117 = load ptr, ptr %8, align 8, !tbaa !36
  %118 = getelementptr inbounds nuw %struct.decoder_pkey_data_st, ptr %117, i32 0, i32 4
  %119 = load ptr, ptr %118, align 8, !tbaa !78
  %120 = load ptr, ptr %8, align 8, !tbaa !36
  %121 = getelementptr inbounds nuw %struct.decoder_pkey_data_st, ptr %120, i32 0, i32 1
  %122 = load ptr, ptr %121, align 8, !tbaa !40
  %123 = call ptr @EVP_KEYMGMT_fetch(ptr noundef %116, ptr noundef %119, ptr noundef %122)
  store ptr %123, ptr %12, align 8, !tbaa !58
  %124 = icmp ne ptr %123, null
  br i1 %124, label %125, label %128

125:                                              ; preds = %113
  %126 = load ptr, ptr %12, align 8, !tbaa !58
  %127 = call ptr @EVP_KEYMGMT_get0_provider(ptr noundef %126)
  store ptr %127, ptr %13, align 8, !tbaa !64
  br label %128

128:                                              ; preds = %125, %113
  br label %129

129:                                              ; preds = %128, %112
  %130 = load ptr, ptr %12, align 8, !tbaa !58
  %131 = icmp ne ptr %130, null
  br i1 %131, label %132, label %191

132:                                              ; preds = %129
  call void @llvm.lifetime.start.p0(i64 8, ptr %21) #7
  store ptr null, ptr %21, align 8, !tbaa !84
  call void @llvm.lifetime.start.p0(i64 8, ptr %22) #7
  store ptr null, ptr %22, align 8, !tbaa !14
  %133 = load ptr, ptr %13, align 8, !tbaa !64
  %134 = load ptr, ptr %11, align 8, !tbaa !64
  %135 = icmp eq ptr %133, %134
  br i1 %135, label %136, label %148

136:                                              ; preds = %132
  %137 = load ptr, ptr %12, align 8, !tbaa !58
  %138 = load ptr, ptr %16, align 8, !tbaa !14
  %139 = load i64, ptr %17, align 8, !tbaa !10
  %140 = call ptr @evp_keymgmt_load(ptr noundef %137, ptr noundef %138, i64 noundef %139)
  store ptr %140, ptr %22, align 8, !tbaa !14
  %141 = load ptr, ptr %22, align 8, !tbaa !14
  %142 = icmp eq ptr %141, null
  br i1 %142, label %143, label %147

143:                                              ; preds = %136
  %144 = load ptr, ptr %8, align 8, !tbaa !36
  %145 = getelementptr inbounds nuw %struct.decoder_pkey_data_st, ptr %144, i32 0, i32 6
  %146 = load ptr, ptr %145, align 8, !tbaa !57
  call void @ossl_decoder_ctx_set_harderr(ptr noundef %146)
  br label %147

147:                                              ; preds = %143, %136
  br label %174

148:                                              ; preds = %132
  call void @llvm.lifetime.start.p0(i64 24, ptr %23) #7
  %149 = load ptr, ptr %12, align 8, !tbaa !58
  %150 = getelementptr inbounds nuw %struct.evp_keymgmt_util_try_import_data_st, ptr %23, i32 0, i32 0
  store ptr %149, ptr %150, align 8, !tbaa !86
  %151 = getelementptr inbounds nuw %struct.evp_keymgmt_util_try_import_data_st, ptr %23, i32 0, i32 1
  store ptr null, ptr %151, align 8, !tbaa !88
  %152 = load ptr, ptr %8, align 8, !tbaa !36
  %153 = getelementptr inbounds nuw %struct.decoder_pkey_data_st, ptr %152, i32 0, i32 2
  %154 = load i32, ptr %153, align 8, !tbaa !48
  %155 = icmp eq i32 %154, 0
  br i1 %155, label %156, label %158

156:                                              ; preds = %148
  %157 = getelementptr inbounds nuw %struct.evp_keymgmt_util_try_import_data_st, ptr %23, i32 0, i32 2
  store i32 135, ptr %157, align 8, !tbaa !89
  br label %163

158:                                              ; preds = %148
  %159 = load ptr, ptr %8, align 8, !tbaa !36
  %160 = getelementptr inbounds nuw %struct.decoder_pkey_data_st, ptr %159, i32 0, i32 2
  %161 = load i32, ptr %160, align 8, !tbaa !48
  %162 = getelementptr inbounds nuw %struct.evp_keymgmt_util_try_import_data_st, ptr %23, i32 0, i32 2
  store i32 %161, ptr %162, align 8, !tbaa !89
  br label %163

163:                                              ; preds = %158, %156
  %164 = load ptr, ptr %9, align 8, !tbaa !62
  %165 = getelementptr inbounds nuw %struct.ossl_decoder_st, ptr %164, i32 0, i32 9
  %166 = load ptr, ptr %165, align 8, !tbaa !90
  %167 = load ptr, ptr %10, align 8, !tbaa !14
  %168 = load ptr, ptr %16, align 8, !tbaa !14
  %169 = load i64, ptr %17, align 8, !tbaa !10
  %170 = call i32 %166(ptr noundef %167, ptr noundef %168, i64 noundef %169, ptr noundef @evp_keymgmt_util_try_import, ptr noundef %23)
  %171 = getelementptr inbounds nuw %struct.evp_keymgmt_util_try_import_data_st, ptr %23, i32 0, i32 1
  %172 = load ptr, ptr %171, align 8, !tbaa !88
  store ptr %172, ptr %22, align 8, !tbaa !14
  %173 = getelementptr inbounds nuw %struct.evp_keymgmt_util_try_import_data_st, ptr %23, i32 0, i32 1
  store ptr null, ptr %173, align 8, !tbaa !88
  call void @llvm.lifetime.end.p0(i64 24, ptr %23) #7
  br label %174

174:                                              ; preds = %163, %147
  %175 = load ptr, ptr %22, align 8, !tbaa !14
  %176 = icmp ne ptr %175, null
  br i1 %176, label %177, label %185

177:                                              ; preds = %174
  %178 = load ptr, ptr %12, align 8, !tbaa !58
  %179 = load ptr, ptr %22, align 8, !tbaa !14
  %180 = call ptr @evp_keymgmt_util_make_pkey(ptr noundef %178, ptr noundef %179)
  store ptr %180, ptr %21, align 8, !tbaa !84
  %181 = icmp eq ptr %180, null
  br i1 %181, label %182, label %185

182:                                              ; preds = %177
  %183 = load ptr, ptr %12, align 8, !tbaa !58
  %184 = load ptr, ptr %22, align 8, !tbaa !14
  call void @evp_keymgmt_freedata(ptr noundef %183, ptr noundef %184)
  br label %185

185:                                              ; preds = %182, %177, %174
  %186 = load ptr, ptr %21, align 8, !tbaa !84
  %187 = load ptr, ptr %8, align 8, !tbaa !36
  %188 = getelementptr inbounds nuw %struct.decoder_pkey_data_st, ptr %187, i32 0, i32 5
  %189 = load ptr, ptr %188, align 8, !tbaa !42
  store ptr %186, ptr %189, align 8, !tbaa !14
  %190 = load ptr, ptr %12, align 8, !tbaa !58
  call void @EVP_KEYMGMT_free(ptr noundef %190)
  call void @llvm.lifetime.end.p0(i64 8, ptr %22) #7
  call void @llvm.lifetime.end.p0(i64 8, ptr %21) #7
  br label %191

191:                                              ; preds = %185, %129
  %192 = load ptr, ptr %8, align 8, !tbaa !36
  %193 = getelementptr inbounds nuw %struct.decoder_pkey_data_st, ptr %192, i32 0, i32 5
  %194 = load ptr, ptr %193, align 8, !tbaa !42
  %195 = load ptr, ptr %194, align 8, !tbaa !14
  %196 = icmp ne ptr %195, null
  %197 = zext i1 %196 to i32
  store i32 %197, ptr %4, align 4
  store i32 1, ptr %20, align 4
  br label %198

198:                                              ; preds = %191, %111, %60, %47
  call void @llvm.lifetime.end.p0(i64 8, ptr %18) #7
  call void @llvm.lifetime.end.p0(i64 8, ptr %17) #7
  call void @llvm.lifetime.end.p0(i64 8, ptr %16) #7
  call void @llvm.lifetime.end.p0(i64 4, ptr %15) #7
  call void @llvm.lifetime.end.p0(i64 4, ptr %14) #7
  call void @llvm.lifetime.end.p0(i64 8, ptr %13) #7
  call void @llvm.lifetime.end.p0(i64 8, ptr %12) #7
  call void @llvm.lifetime.end.p0(i64 8, ptr %11) #7
  call void @llvm.lifetime.end.p0(i64 8, ptr %10) #7
  call void @llvm.lifetime.end.p0(i64 8, ptr %9) #7
  call void @llvm.lifetime.end.p0(i64 8, ptr %8) #7
  %199 = load i32, ptr %4, align 4
  ret i32 %199
}