; Function Attrs: nounwind uwtable
define internal range(i32 0, 2) i32 @decoder_construct_pkey(ptr noundef %0, ptr noundef %1, ptr noundef captures(none) %2) #0 {
  %4 = alloca ptr, align 8
  %5 = alloca %struct.evp_keymgmt_util_try_import_data_st, align 8
  %6 = tail call ptr @OSSL_DECODER_INSTANCE_get_decoder(ptr noundef %0) #7
  %7 = tail call ptr @OSSL_DECODER_INSTANCE_get_decoder_ctx(ptr noundef %0) #7
  %8 = tail call ptr @OSSL_DECODER_get0_provider(ptr noundef %6) #7
  %9 = tail call ptr @OSSL_PARAM_locate_const(ptr noundef %1, ptr noundef nonnull @.str.5) #7
  %.not = icmp eq ptr %9, null
  br i1 %.not, label %16, label %10

10:                                               ; preds = %3
  call void @llvm.lifetime.start.p0(i64 8, ptr nonnull %4) #7
  store ptr null, ptr %4, align 8, !tbaa !21
  %11 = call i32 @OSSL_PARAM_get_utf8_string(ptr noundef nonnull %9, ptr noundef nonnull %4, i64 noundef 0) #7
  %.not77.not = icmp eq i32 %11, 0
  br i1 %.not77.not, label %.critedge, label %12

12:                                               ; preds = %10
  %13 = getelementptr inbounds nuw i8, ptr %2, i64 32
  %14 = load ptr, ptr %13, align 8, !tbaa !44
  call void @CRYPTO_free(ptr noundef %14, ptr noundef nonnull @.str, i32 noundef 100) #7
  %15 = load ptr, ptr %4, align 8, !tbaa !21
  store ptr %15, ptr %13, align 8, !tbaa !44
  call void @llvm.lifetime.end.p0(i64 8, ptr nonnull %4) #7
  br label %16

16:                                               ; preds = %12, %3
  %17 = call ptr @OSSL_PARAM_locate_const(ptr noundef %1, ptr noundef nonnull @.str.6) #7
  %18 = icmp eq ptr %17, null
  br i1 %18, label %81, label %19

19:                                               ; preds = %16
  %20 = getelementptr inbounds nuw i8, ptr %17, i64 8
  %21 = load i32, ptr %20, align 8, !tbaa !65
  %.not78 = icmp eq i32 %21, 5
  br i1 %.not78, label %22, label %81

22:                                               ; preds = %19
  %23 = getelementptr inbounds nuw i8, ptr %17, i64 16
  %24 = load ptr, ptr %23, align 8, !tbaa !67
  %25 = getelementptr inbounds nuw i8, ptr %17, i64 24
  %26 = load i64, ptr %25, align 8, !tbaa !68
  %27 = getelementptr inbounds nuw i8, ptr %2, i64 24
  %28 = load ptr, ptr %27, align 8, !tbaa !37
  %29 = call i32 @OPENSSL_sk_num(ptr noundef %28) #7
  %30 = icmp sgt i32 %29, 0
  br i1 %30, label %.lr.ph, label %._crit_edge

.lr.ph:                                           ; preds = %22
  %31 = getelementptr inbounds nuw i8, ptr %2, i64 32
  br label %32

32:                                               ; preds = %.lr.ph, %42
  %.061107 = phi i32 [ 0, %.lr.ph ], [ %43, %42 ]
  %33 = load ptr, ptr %27, align 8, !tbaa !37
  %34 = call ptr @OPENSSL_sk_value(ptr noundef %33, i32 noundef %.061107) #7
  %35 = call ptr @EVP_KEYMGMT_get0_provider(ptr noundef %34) #7
  %36 = icmp eq ptr %35, %8
  br i1 %36, label %37, label %42

37:                                               ; preds = %32
  %38 = call i32 @evp_keymgmt_has_load(ptr noundef %34) #7
  %.not79 = icmp eq i32 %38, 0
  br i1 %.not79, label %42, label %39

39:                                               ; preds = %37
  %40 = load ptr, ptr %31, align 8, !tbaa !44
  %41 = call i32 @EVP_KEYMGMT_is_a(ptr noundef %34, ptr noundef %40) #7
  %.not80 = icmp eq i32 %41, 0
  br i1 %.not80, label %42, label %44

42:                                               ; preds = %32, %37, %39
  %43 = add nuw nsw i32 %.061107, 1
  %exitcond.not = icmp eq i32 %43, %29
  br i1 %exitcond.not, label %._crit_edge, label %32, !llvm.loop !69

44:                                               ; preds = %39
  %45 = call i32 @EVP_KEYMGMT_up_ref(ptr noundef %34) #7
  %.not82 = icmp eq i32 %45, 0
  br i1 %.not82, label %81, label %52

._crit_edge:                                      ; preds = %42, %22
  %46 = load ptr, ptr %2, align 8, !tbaa !31
  %47 = getelementptr inbounds nuw i8, ptr %2, i64 32
  %48 = load ptr, ptr %47, align 8, !tbaa !44
  %49 = getelementptr inbounds nuw i8, ptr %2, i64 8
  %50 = load ptr, ptr %49, align 8, !tbaa !26
  %51 = call ptr @EVP_KEYMGMT_fetch(ptr noundef %46, ptr noundef %48, ptr noundef %50) #7
  %.not81 = icmp eq ptr %51, null
  br i1 %.not81, label %.thread89, label %53

52:                                               ; preds = %44
  %.not83 = icmp eq ptr %34, null
  br i1 %.not83, label %.thread89, label %.thread

53:                                               ; preds = %._crit_edge
  %54 = call ptr @EVP_KEYMGMT_get0_provider(ptr noundef nonnull %51) #7
  %55 = icmp eq ptr %54, %8
  br i1 %55, label %.thread, label %60

.thread:                                          ; preds = %52, %53
  %.26697115 = phi ptr [ %51, %53 ], [ %34, %52 ]
  %56 = call ptr @evp_keymgmt_load(ptr noundef nonnull %.26697115, ptr noundef %24, i64 noundef %26) #7
  %57 = icmp eq ptr %56, null
  br i1 %57, label %.thread99, label %.thread102

.thread99:                                        ; preds = %.thread
  %58 = getelementptr inbounds nuw i8, ptr %2, i64 48
  %59 = load ptr, ptr %58, align 8, !tbaa !46
  call void @ossl_decoder_ctx_set_harderr(ptr noundef %59) #7
  br label %73

60:                                               ; preds = %53
  call void @llvm.lifetime.start.p0(i64 24, ptr nonnull %5) #7
  store ptr %51, ptr %5, align 8, !tbaa !70
  %61 = getelementptr inbounds nuw i8, ptr %5, i64 8
  store ptr null, ptr %61, align 8, !tbaa !73
  %62 = getelementptr inbounds nuw i8, ptr %2, i64 16
  %63 = load i32, ptr %62, align 8, !tbaa !36
  %64 = icmp eq i32 %63, 0
  %spec.select = select i1 %64, i32 135, i32 %63
  %65 = getelementptr inbounds nuw i8, ptr %5, i64 16
  store i32 %spec.select, ptr %65, align 8, !tbaa !74
  %66 = getelementptr inbounds nuw i8, ptr %6, i64 112
  %67 = load ptr, ptr %66, align 8, !tbaa !75
  %68 = call i32 %67(ptr noundef %7, ptr noundef %24, i64 noundef %26, ptr noundef nonnull @evp_keymgmt_util_try_import, ptr noundef nonnull %5) #7
  %69 = load ptr, ptr %61, align 8, !tbaa !73
  call void @llvm.lifetime.end.p0(i64 24, ptr nonnull %5) #7
  %.not84 = icmp eq ptr %69, null
  br i1 %.not84, label %73, label %.thread102

.thread102:                                       ; preds = %.thread, %60
  %.26697114 = phi ptr [ %51, %60 ], [ %.26697115, %.thread ]
  %.0105 = phi ptr [ %69, %60 ], [ %56, %.thread ]
  %70 = call ptr @evp_keymgmt_util_make_pkey(ptr noundef nonnull %.26697114, ptr noundef nonnull %.0105) #7
  %71 = icmp eq ptr %70, null
  br i1 %71, label %72, label %73

72:                                               ; preds = %.thread102
  call void @evp_keymgmt_freedata(ptr noundef nonnull %.26697114, ptr noundef nonnull %.0105) #7
  br label %73

73:                                               ; preds = %.thread99, %72, %.thread102, %60
  %.26697113 = phi ptr [ %.26697114, %72 ], [ %.26697114, %.thread102 ], [ %51, %60 ], [ %.26697115, %.thread99 ]
  %.058 = phi ptr [ null, %72 ], [ %70, %.thread102 ], [ null, %60 ], [ null, %.thread99 ]
  %74 = getelementptr inbounds nuw i8, ptr %2, i64 40
  %75 = load ptr, ptr %74, align 8, !tbaa !30
  store ptr %.058, ptr %75, align 8, !tbaa !23
  call void @EVP_KEYMGMT_free(ptr noundef nonnull %.26697113) #7
  br label %.thread89

.thread89:                                        ; preds = %._crit_edge, %73, %52
  %76 = getelementptr inbounds nuw i8, ptr %2, i64 40
  %77 = load ptr, ptr %76, align 8, !tbaa !30
  %78 = load ptr, ptr %77, align 8, !tbaa !23
  %79 = icmp ne ptr %78, null
  %80 = zext i1 %79 to i32
  br label %81

.critedge:                                        ; preds = %10
  call void @llvm.lifetime.end.p0(i64 8, ptr nonnull %4) #7
  br label %81

81:                                               ; preds = %44, %16, %19, %.critedge, %.thread89
  %.1 = phi i32 [ %80, %.thread89 ], [ 0, %.critedge ], [ 0, %19 ], [ 0, %16 ], [ 0, %44 ]
  ret i32 %.1
}